target datalayout = "e-m:e-p270:32:32-p271:32:32-p272:64:64-i64:64-i128:128-f80:128-n8:16:32:64-S128"
target triple = "x86_64-unknown-linux-gnu"

%struct.hdr_histogram = type { i64, i64, i32, i32, i32, i32, i64, i32, i32, i64, i64, i32, double, i32, i64, ptr }

; Function Attrs: nounwind uwtable
define internal i32 @count_leading_zeros_64(i64 noundef %value) #0 {
entry:
  %value.addr = alloca i64, align 8
  store i64 %value, ptr %value.addr, align 8
  %0 = load i64, ptr %value.addr, align 8
  %1 = call i64 @llvm.ctlz.i64(i64 %0, i1 true)
  %cast = trunc i64 %1 to i32
  ret i32 %cast
}

; Function Attrs: nounwind uwtable
define internal i64 @value_from_index(i32 noundef %bucket_index, i32 noundef %sub_bucket_index, i32 noundef %unit_magnitude) #0 {
entry:
  %bucket_index.addr = alloca i32, align 4
  %sub_bucket_index.addr = alloca i32, align 4
  %unit_magnitude.addr = alloca i32, align 4
  store i32 %bucket_index, ptr %bucket_index.addr, align 4
  store i32 %sub_bucket_index, ptr %sub_bucket_index.addr, align 4
  store i32 %unit_magnitude, ptr %unit_magnitude.addr, align 4
  %0 = load i32, ptr %sub_bucket_index.addr, align 4
  %conv = sext i32 %0 to i64
  %1 = load i32, ptr %bucket_index.addr, align 4
  %2 = load i32, ptr %unit_magnitude.addr, align 4
  %add = add nsw i32 %1, %2
  %sh_prom = zext i32 %add to i64
  %shl = shl i64 %conv, %sh_prom
  ret i64 %shl
}

; Function Attrs: nounwind uwtable
define internal i32 @get_sub_bucket_index(i64 noundef %value, i32 noundef %bucket_index, i32 noundef %unit_magnitude) #0 {
entry:
  %value.addr = alloca i64, align 8
  %bucket_index.addr = alloca i32, align 4
  %unit_magnitude.addr = alloca i32, align 4
  store i64 %value, ptr %value.addr, align 8
  store i32 %bucket_index, ptr %bucket_index.addr, align 4
  store i32 %unit_magnitude, ptr %unit_magnitude.addr, align 4
  %0 = load i64, ptr %value.addr, align 8
  %1 = load i32, ptr %bucket_index.addr, align 4
  %2 = load i32, ptr %unit_magnitude.addr, align 4
  %add = add nsw i32 %1, %2
  %sh_prom = zext i32 %add to i64
  %shr = ashr i64 %0, %sh_prom
  %conv = trunc i64 %shr to i32
  ret i32 %conv
}

; Function Attrs: nounwind uwtable
define internal i32 @get_bucket_index(ptr noundef %h, i64 noundef %value) #0 {
entry:
  %h.addr = alloca ptr, align 8
  %value.addr = alloca i64, align 8
  %pow2ceiling = alloca i32, align 4
  store ptr %h, ptr %h.addr, align 8
  store i64 %value, ptr %value.addr, align 8
  %0 = load i64, ptr %value.addr, align 8
  %1 = load ptr, ptr %h.addr, align 8
  %sub_bucket_mask = getelementptr inbounds %struct.hdr_histogram, ptr %1, i32 0, i32 6
  %2 = load i64, ptr %sub_bucket_mask, align 8
  %or = or i64 %0, %2
  %call = call i32 @count_leading_zeros_64(i64 noundef %or)
  %sub = sub nsw i32 64, %call
  store i32 %sub, ptr %pow2ceiling, align 4
  %3 = load i32, ptr %pow2ceiling, align 4
  %4 = load ptr, ptr %h.addr, align 8
  %unit_magnitude = getelementptr inbounds %struct.hdr_histogram, ptr %4, i32 0, i32 2
  %5 = load i32, ptr %unit_magnitude, align 8
  %sub1 = sub nsw i32 %3, %5
  %6 = load ptr, ptr %h.addr, align 8
  %sub_bucket_half_count_magnitude = getelementptr inbounds %struct.hdr_histogram, ptr %6, i32 0, i32 4
  %7 = load i32, ptr %sub_bucket_half_count_magnitude, align 8
  %add = add nsw i32 %7, 1
  %sub2 = sub nsw i32 %sub1, %add
  ret i32 %sub2
}

; Function Attrs: nounwind uwtable
define dso_local i64 @hdr_size_of_equivalent_value_range(ptr noundef %h, i64 noundef %value) #0 {
entry:
  %h.addr = alloca ptr, align 8
  %value.addr = alloca i64, align 8
  %bucket_index = alloca i32, align 4
  %sub_bucket_index = alloca i32, align 4
  %adjusted_bucket = alloca i32, align 4
  store ptr %h, ptr %h.addr, align 8
  store i64 %value, ptr %value.addr, align 8
  %0 = load ptr, ptr %h.addr, align 8
  %1 = load i64, ptr %value.addr, align 8
  %call = call i32 @get_bucket_index(ptr noundef %0, i64 noundef %1)
  store i32 %call, ptr %bucket_index, align 4
  %2 = load i64, ptr %value.addr, align 8
  %3 = load i32, ptr %bucket_index, align 4
  %4 = load ptr, ptr %h.addr, align 8
  %unit_magnitude = getelementptr inbounds %struct.hdr_histogram, ptr %4, i32 0, i32 2
  %5 = load i32, ptr %unit_magnitude, align 8
  %call1 = call i32 @get_sub_bucket_index(i64 noundef %2, i32 noundef %3, i32 noundef %5)
  store i32 %call1, ptr %sub_bucket_index, align 4
  %6 = load i32, ptr %sub_bucket_index, align 4
  %7 = load ptr, ptr %h.addr, align 8
  %sub_bucket_count = getelementptr inbounds %struct.hdr_histogram, ptr %7, i32 0, i32 7
  %8 = load i32, ptr %sub_bucket_count, align 8
  %cmp = icmp sge i32 %6, %8
  br i1 %cmp, label %cond.true, label %cond.false

cond.true:                                        ; preds = %entry
  %9 = load i32, ptr %bucket_index, align 4
  %add = add nsw i32 %9, 1
  br label %cond.end

cond.false:                                       ; preds = %entry
  %10 = load i32, ptr %bucket_index, align 4
  br label %cond.end

cond.end:                                         ; preds = %cond.false, %cond.true
  %cond = phi i32 [ %add, %cond.true ], [ %10, %cond.false ]
  store i32 %cond, ptr %adjusted_bucket, align 4
  %11 = load ptr, ptr %h.addr, align 8
  %unit_magnitude2 = getelementptr inbounds %struct.hdr_histogram, ptr %11, i32 0, i32 2
  %12 = load i32, ptr %unit_magnitude2, align 8
  %13 = load i32, ptr %adjusted_bucket, align 4
  %add3 = add nsw i32 %12, %13
  %sh_prom = zext i32 %add3 to i64
  %shl = shl i64 1, %sh_prom
  ret i64 %shl
}

; Function Attrs: nounwind uwtable
define internal i64 @lowest_equivalent_value(ptr noundef %h, i64 noundef %value) #0 {
entry:
  %h.addr = alloca ptr, align 8
  %value.addr = alloca i64, align 8
  %bucket_index = alloca i32, align 4
  %sub_bucket_index = alloca i32, align 4
  store ptr %h, ptr %h.addr, align 8
  store i64 %value, ptr %value.addr, align 8
  %0 = load ptr, ptr %h.addr, align 8
  %1 = load i64, ptr %value.addr, align 8
  %call = call i32 @get_bucket_index(ptr noundef %0, i64 noundef %1)
  store i32 %call, ptr %bucket_index, align 4
  %2 = load i64, ptr %value.addr, align 8
  %3 = load i32, ptr %bucket_index, align 4
  %4 = load ptr, ptr %h.addr, align 8
  %unit_magnitude = getelementptr inbounds %struct.hdr_histogram, ptr %4, i32 0, i32 2
  %5 = load i32, ptr %unit_magnitude, align 8
  %call1 = call i32 @get_sub_bucket_index(i64 noundef %2, i32 noundef %3, i32 noundef %5)
  store i32 %call1, ptr %sub_bucket_index, align 4
  %6 = load i32, ptr %bucket_index, align 4
  %7 = load i32, ptr %sub_bucket_index, align 4
  %8 = load ptr, ptr %h.addr, align 8
  %unit_magnitude2 = getelementptr inbounds %struct.hdr_histogram, ptr %8, i32 0, i32 2
  %9 = load i32, ptr %unit_magnitude2, align 8
  %call3 = call i64 @value_from_index(i32 noundef %6, i32 noundef %7, i32 noundef %9)
  ret i64 %call3
}

; Function Attrs: nounwind uwtable
define dso_local i64 @hdr_next_non_equivalent_value(ptr noundef %h, i64 noundef %value) #0 {
entry:
  %h.addr = alloca ptr, align 8
  %value.addr = alloca i64, align 8
  store ptr %h, ptr %h.addr, align 8
  store i64 %value, ptr %value.addr, align 8
  %0 = load ptr, ptr %h.addr, align 8
  %1 = load i64, ptr %value.addr, align 8
  %call = call i64 @lowest_equivalent_value(ptr noundef %0, i64 noundef %1)
  %2 = load ptr, ptr %h.addr, align 8
  %3 = load i64, ptr %value.addr, align 8
  %call1 = call i64 @hdr_size_of_equivalent_value_range(ptr noundef %2, i64 noundef %3)
  %add = add nsw i64 %call, %call1
  ret i64 %add
}

; Function Attrs: nounwind uwtable
define internal i64 @highest_equivalent_value(ptr noundef %h, i64 noundef %value) #0 {
entry:
  %h.addr = alloca ptr, align 8
  %value.addr = alloca i64, align 8
  store ptr %h, ptr %h.addr, align 8
  store i64 %value, ptr %value.addr, align 8
  %0 = load ptr, ptr %h.addr, align 8
  %1 = load i64, ptr %value.addr, align 8
  %call = call i64 @hdr_next_non_equivalent_value(ptr noundef %0, i64 noundef %1)
  %sub = sub nsw i64 %call, 1
  ret i64 %sub
}

; Function Attrs: nounwind uwtable
define dso_local i64 @hdr_max(ptr noundef %h) #0 {
entry:
  %retval = alloca i64, align 8
  %h.addr = alloca ptr, align 8
  store ptr %h, ptr %h.addr, align 8
  %0 = load ptr, ptr %h.addr, align 8
  %max_value = getelementptr inbounds %struct.hdr_histogram, ptr %0, i32 0, i32 10
  %1 = load i64, ptr %max_value, align 8
  %cmp = icmp eq i64 0, %1
  br i1 %cmp, label %if.then, label %if.end

if.then:                                          ; preds = %entry
  store i64 0, ptr %retval, align 8
  br label %return

if.end:                                           ; preds = %entry
  %2 = load ptr, ptr %h.addr, align 8
  %3 = load ptr, ptr %h.addr, align 8
  %max_value1 = getelementptr inbounds %struct.hdr_histogram, ptr %3, i32 0, i32 10
  %4 = load i64, ptr %max_value1, align 8
  %call = call i64 @highest_equivalent_value(ptr noundef %2, i64 noundef %4)
  store i64 %call, ptr %retval, align 8
  br label %return

return:                                           ; preds = %if.end, %if.then
  %5 = load i64, ptr %retval, align 8
  ret i64 %5
}