; Function Attrs: mustprogress nofree norecurse nosync nounwind willreturn memory(argmem: read) uwtable
define dso_local i64 @hdr_max(ptr nocapture noundef readonly %h) local_unnamed_addr #0 {
entry:
  %max_value = getelementptr inbounds i8, ptr %h, i64 56
  %0 = load i64, ptr %max_value, align 8
  %cmp = icmp eq i64 %0, 0
  br i1 %cmp, label %return, label %if.end

if.end:                                           ; preds = %entry
  %sub_bucket_mask.i.i.i.i = getelementptr inbounds i8, ptr %h, i64 32
  %1 = load i64, ptr %sub_bucket_mask.i.i.i.i, align 8
  %or.i.i.i.i = or i64 %1, %0
  %2 = tail call i64 @llvm.ctlz.i64(i64 %or.i.i.i.i, i1 true), !range !5
  %cast.i.i.i.i.i = trunc i64 %2 to i32
  %sub_bucket_half_count_magnitude.i.i.i.i = getelementptr inbounds i8, ptr %h, i64 24
  %3 = load i32, ptr %sub_bucket_half_count_magnitude.i.i.i.i, align 8
  %4 = add i32 %3, %cast.i.i.i.i.i
  %add.i.i.i.i = sub i32 63, %4
  %sh_prom.i.i.i.i = zext nneg i32 %add.i.i.i.i to i64
  %shr.i.i.i.i = ashr i64 %0, %sh_prom.i.i.i.i
  %sext.i.i.i = shl i64 %shr.i.i.i.i, 32
  %conv.i5.i.i.i = ashr exact i64 %sext.i.i.i, 32
  %shl.i.i.i.i = shl i64 %conv.i5.i.i.i, %sh_prom.i.i.i.i
  %conv.i.i.i.i = trunc i64 %shr.i.i.i.i to i32
  %sub_bucket_count.i.i.i = getelementptr inbounds i8, ptr %h, i64 40
  %5 = load i32, ptr %sub_bucket_count.i.i.i, align 8
  %cmp.not.i.i.i = icmp sle i32 %5, %conv.i.i.i.i
  %add.i.i.i = zext i1 %cmp.not.i.i.i to i32
  %add3.i.i.i = add i32 %add.i.i.i.i, %add.i.i.i
  %sh_prom.i.i.i = zext nneg i32 %add3.i.i.i to i64
  %shl.i.i.i = shl nuw i64 1, %sh_prom.i.i.i
  %add.i.i = add i64 %shl.i.i.i.i, -1
  %sub.i = add i64 %add.i.i, %shl.i.i.i
  br label %return

return:                                           ; preds = %entry, %if.end
  %retval.0 = phi i64 [ %sub.i, %if.end ], [ 0, %entry ]
  ret i64 %retval.0
}